; Function Attrs: mustprogress nofree norecurse nounwind willreturn uwtable
define void @_ZNK19OpenColorIO_v2_4dev9Processor20getProcessorMetadataEv(ptr noalias nocapture writeonly sret(%"class.std::shared_ptr.45") align 8 %agg.result, ptr nocapture noundef nonnull readonly align 8 dereferenceable(8) %this) local_unnamed_addr #7 align 2 personality ptr @__gxx_personality_v0 {
entry:
  %0 = load ptr, ptr %this, align 8
  tail call void @llvm.experimental.noalias.scope.decl(metadata !7)
  %1 = load ptr, ptr %0, align 8, !noalias !7
  store ptr %1, ptr %agg.result, align 8, !alias.scope !7
  %_M_refcount.i.i.i = getelementptr inbounds i8, ptr %agg.result, i64 8
  %_M_refcount3.i.i.i = getelementptr inbounds i8, ptr %0, i64 8
  %2 = load ptr, ptr %_M_refcount3.i.i.i, align 8, !noalias !7
  store ptr %2, ptr %_M_refcount.i.i.i, align 8, !alias.scope !7
  %cmp.not.i.i.i.i = icmp eq ptr %2, null
  br i1 %cmp.not.i.i.i.i, label %_ZNK19OpenColorIO_v2_4dev9Processor4Impl20getProcessorMetadataEv.exit, label %if.then.i.i.i.i

if.then.i.i.i.i:                                  ; preds = %entry
  %_M_use_count.i.i.i.i.i = getelementptr inbounds i8, ptr %2, i64 8
  %3 = load i8, ptr @__libc_single_threaded, align 1, !noalias !7
  %tobool.i.i.not.i.i.i.i.i = icmp eq i8 %3, 0
  br i1 %tobool.i.i.not.i.i.i.i.i, label %if.else.i.i.i.i.i.i, label %if.then.i.i.i.i.i.i

if.then.i.i.i.i.i.i:                              ; preds = %if.then.i.i.i.i
  %4 = load i32, ptr %_M_use_count.i.i.i.i.i, align 4, !noalias !7
  %add.i.i.i.i.i.i = add nsw i32 %4, 1
  store i32 %add.i.i.i.i.i.i, ptr %_M_use_count.i.i.i.i.i, align 4, !noalias !7
  br label %_ZNK19OpenColorIO_v2_4dev9Processor4Impl20getProcessorMetadataEv.exit

if.else.i.i.i.i.i.i:                              ; preds = %if.then.i.i.i.i
  %5 = atomicrmw volatile add ptr %_M_use_count.i.i.i.i.i, i32 1 acq_rel, align 4, !noalias !7
  br label %_ZNK19OpenColorIO_v2_4dev9Processor4Impl20getProcessorMetadataEv.exit

_ZNK19OpenColorIO_v2_4dev9Processor4Impl20getProcessorMetadataEv.exit: ; preds = %entry, %if.then.i.i.i.i.i.i, %if.else.i.i.i.i.i.i
  ret void
}